; Function Attrs: alwaysinline norecurse nounwind uwtable
define internal void @_ZN8LightGBM7Dataset10CopySubrowEPKS0_PKiib.omp_outlined.56(ptr noalias noundef readonly captures(none) %0, ptr noalias readnone captures(none) %1, ptr noundef nonnull readonly align 4 captures(none) dereferenceable(4) %2, ptr noundef readonly captures(none) %3, ptr noundef nonnull readonly align 8 captures(none) dereferenceable(8) %4, ptr noundef nonnull readonly align 8 captures(none) dereferenceable(8) %5) #21 {
  %7 = alloca i32, align 4
  %8 = alloca i32, align 4
  %9 = alloca i32, align 4
  %10 = alloca i32, align 4
  %11 = load i32, ptr %2, align 4, !tbaa !104
  %12 = icmp sgt i32 %11, 0
  br i1 %12, label %13, label %41

13:                                               ; preds = %6
  %14 = add nsw i32 %11, -1
  call void @llvm.lifetime.start.p0(i64 4, ptr nonnull %7) #20
  store i32 0, ptr %7, align 4, !tbaa !104
  call void @llvm.lifetime.start.p0(i64 4, ptr nonnull %8) #20
  store i32 %14, ptr %8, align 4, !tbaa !104
  call void @llvm.lifetime.start.p0(i64 4, ptr nonnull %9) #20
  store i32 1, ptr %9, align 4, !tbaa !104
  call void @llvm.lifetime.start.p0(i64 4, ptr nonnull %10) #20
  store i32 0, ptr %10, align 4, !tbaa !104
  %15 = load i32, ptr %0, align 4, !tbaa !104
  call void @__kmpc_for_static_init_4(ptr nonnull @1, i32 %15, i32 34, ptr nonnull %10, ptr nonnull %7, ptr nonnull %8, ptr nonnull %9, i32 1, i32 1)
  %16 = load i32, ptr %8, align 4, !tbaa !104
  %17 = call i32 @llvm.smin.i32(i32 %16, i32 %14)
  store i32 %17, ptr %8, align 4, !tbaa !104
  %18 = load i32, ptr %7, align 4, !tbaa !104
  %.not21 = icmp sgt i32 %18, %17
  br i1 %.not21, label %._crit_edge23, label %.preheader.lr.ph

.preheader.lr.ph:                                 ; preds = %13
  %19 = getelementptr inbounds nuw i8, ptr %3, i64 744
  %20 = load i32, ptr %19, align 8, !tbaa !471
  %21 = icmp sgt i32 %20, 0
  %22 = load ptr, ptr %5, align 8
  br i1 %21, label %.preheader.lr.ph.split.us, label %._crit_edge23

.preheader.lr.ph.split.us:                        ; preds = %.preheader.lr.ph
  %23 = getelementptr inbounds nuw i8, ptr %3, i64 680
  %24 = load ptr, ptr %4, align 8
  %25 = getelementptr inbounds nuw i8, ptr %24, i64 680
  %26 = load ptr, ptr %25, align 8, !tbaa !258
  %27 = load ptr, ptr %23, align 8, !tbaa !258
  %28 = sext i32 %18 to i64
  %29 = add nsw i32 %17, 1
  %wide.trip.count = zext nneg i32 %20 to i64
  br label %.preheader.us

.preheader.us:                                    ; preds = %._crit_edge.us, %.preheader.lr.ph.split.us
  %indvars.iv26 = phi i64 [ %indvars.iv.next27, %._crit_edge.us ], [ %28, %.preheader.lr.ph.split.us ]
  %30 = getelementptr inbounds i32, ptr %22, i64 %indvars.iv26
  %31 = load i32, ptr %30, align 4, !tbaa !104
  %32 = sext i32 %31 to i64
  br label %33

33:                                               ; preds = %.preheader.us, %33
  %indvars.iv = phi i64 [ 0, %.preheader.us ], [ %indvars.iv.next, %33 ]
  %34 = getelementptr inbounds nuw %"class.std::vector.8", ptr %26, i64 %indvars.iv
  %35 = load ptr, ptr %34, align 8, !tbaa !260
  %36 = getelementptr inbounds nuw float, ptr %35, i64 %32
  %37 = load float, ptr %36, align 4, !tbaa !219
  %38 = getelementptr inbounds nuw %"class.std::vector.8", ptr %27, i64 %indvars.iv
  %39 = load ptr, ptr %38, align 8, !tbaa !260
  %40 = getelementptr inbounds nuw float, ptr %39, i64 %indvars.iv26
  store float %37, ptr %40, align 4, !tbaa !219
  %indvars.iv.next = add nuw nsw i64 %indvars.iv, 1
  %exitcond.not = icmp eq i64 %indvars.iv.next, %wide.trip.count
  br i1 %exitcond.not, label %._crit_edge.us, label %33, !llvm.loop !607

._crit_edge.us:                                   ; preds = %33
  %indvars.iv.next27 = add nsw i64 %indvars.iv26, 1
  %lftr.wideiv = trunc i64 %indvars.iv.next27 to i32
  %exitcond29.not = icmp eq i32 %29, %lftr.wideiv
  br i1 %exitcond29.not, label %._crit_edge23, label %.preheader.us

._crit_edge23:                                    ; preds = %._crit_edge.us, %.preheader.lr.ph, %13
  call void @__kmpc_for_static_fini(ptr nonnull @1, i32 %15)
  call void @llvm.lifetime.end.p0(i64 4, ptr nonnull %10) #20
  call void @llvm.lifetime.end.p0(i64 4, ptr nonnull %9) #20
  call void @llvm.lifetime.end.p0(i64 4, ptr nonnull %8) #20
  call void @llvm.lifetime.end.p0(i64 4, ptr nonnull %7) #20
  br label %41

41:                                               ; preds = %._crit_edge23, %6
  ret void
}